target datalayout = "e-m:e-p270:32:32-p271:32:32-p272:64:64-i64:64-i128:128-f80:128-n8:16:32:64-S128"
target triple = "x86_64-unknown-linux-gnu"

%"struct.std::pair" = type { i32, i32 }
%"class.polynomial::power" = type { %"struct.std::pair" }
%"class.polynomial::monomial" = type { i32, i32, i32, i32, i32, [0 x %"class.polynomial::power"] }

; Function Attrs: mustprogress nounwind uwtable
define linkonce_odr hidden noundef i32 @_ZNK10polynomial5power6degreeEv(ptr noundef nonnull align 4 dereferenceable(8) %this) #4 comdat align 2 {
entry:
  %this.addr = alloca ptr, align 8
  store ptr %this, ptr %this.addr, align 8
  %this1 = load ptr, ptr %this.addr, align 8
  %second = getelementptr inbounds %"struct.std::pair", ptr %this1, i32 0, i32 1
  %0 = load i32, ptr %second, align 4
  ret i32 %0
}

; Function Attrs: mustprogress nounwind uwtable
define linkonce_odr hidden noundef i32 @_ZNK10polynomial5power7get_varEv(ptr noundef nonnull align 4 dereferenceable(8) %this) #4 comdat align 2 {
entry:
  %this.addr = alloca ptr, align 8
  store ptr %this, ptr %this.addr, align 8
  %this1 = load ptr, ptr %this.addr, align 8
  %first = getelementptr inbounds %"struct.std::pair", ptr %this1, i32 0, i32 0
  %0 = load i32, ptr %first, align 4
  ret i32 %0
}

; Function Attrs: mustprogress nounwind uwtable
define linkonce_odr hidden noundef nonnull align 4 dereferenceable(8) ptr @_ZNK10polynomial8monomial9get_powerEj(ptr noundef nonnull align 4 dereferenceable(20) %this, i32 noundef %idx) #4 comdat align 2 {
entry:
  %this.addr = alloca ptr, align 8
  %idx.addr = alloca i32, align 4
  store ptr %this, ptr %this.addr, align 8
  store i32 %idx, ptr %idx.addr, align 4
  %this1 = load ptr, ptr %this.addr, align 8
  %m_powers = getelementptr inbounds %"class.polynomial::monomial", ptr %this1, i32 0, i32 5
  %0 = load i32, ptr %idx.addr, align 4
  %idxprom = zext i32 %0 to i64
  %arrayidx = getelementptr inbounds [0 x %"class.polynomial::power"], ptr %m_powers, i64 0, i64 %idxprom
  ret ptr %arrayidx
}

; Function Attrs: mustprogress nounwind uwtable
define linkonce_odr hidden noundef i32 @_ZNK10polynomial8monomial4sizeEv(ptr noundef nonnull align 4 dereferenceable(20) %this) #4 comdat align 2 {
entry:
  %this.addr = alloca ptr, align 8
  store ptr %this, ptr %this.addr, align 8
  %this1 = load ptr, ptr %this.addr, align 8
  %m_size = getelementptr inbounds %"class.polynomial::monomial", ptr %this1, i32 0, i32 3
  %0 = load i32, ptr %m_size, align 4
  ret i32 %0
}

; Function Attrs: mustprogress uwtable
define hidden noundef i32 @_ZN10polynomial11lex_compareEPKNS_8monomialES2_(ptr noundef %m1, ptr noundef %m2) #5 {
entry:
  %retval = alloca i32, align 4
  %m1.addr = alloca ptr, align 8
  %m2.addr = alloca ptr, align 8
  %sz1 = alloca i32, align 4
  %sz2 = alloca i32, align 4
  %idx1 = alloca i32, align 4
  %idx2 = alloca i32, align 4
  %pw1 = alloca ptr, align 8
  %pw2 = alloca ptr, align 8
  store ptr %m1, ptr %m1.addr, align 8
  store ptr %m2, ptr %m2.addr, align 8
  %0 = load ptr, ptr %m1.addr, align 8
  %1 = load ptr, ptr %m2.addr, align 8
  %cmp = icmp eq ptr %0, %1
  br i1 %cmp, label %if.then, label %if.end

if.then:                                          ; preds = %entry
  store i32 0, ptr %retval, align 4
  br label %return

if.end:                                           ; preds = %entry
  %2 = load ptr, ptr %m1.addr, align 8
  %call = call noundef i32 @_ZNK10polynomial8monomial4sizeEv(ptr noundef nonnull align 4 dereferenceable(20) %2)
  store i32 %call, ptr %sz1, align 4
  %3 = load ptr, ptr %m2.addr, align 8
  %call1 = call noundef i32 @_ZNK10polynomial8monomial4sizeEv(ptr noundef nonnull align 4 dereferenceable(20) %3)
  store i32 %call1, ptr %sz2, align 4
  %4 = load i32, ptr %sz1, align 4
  %sub = sub nsw i32 %4, 1
  store i32 %sub, ptr %idx1, align 4
  %5 = load i32, ptr %sz2, align 4
  %sub2 = sub nsw i32 %5, 1
  store i32 %sub2, ptr %idx2, align 4
  br label %while.cond

while.cond:                                       ; preds = %if.then14, %if.end
  %6 = load i32, ptr %idx1, align 4
  %cmp3 = icmp sge i32 %6, 0
  br i1 %cmp3, label %land.rhs, label %land.end

land.rhs:                                         ; preds = %while.cond
  %7 = load i32, ptr %idx2, align 4
  %cmp4 = icmp sge i32 %7, 0
  br label %land.end

land.end:                                         ; preds = %land.rhs, %while.cond
  %8 = phi i1 [ false, %while.cond ], [ %cmp4, %land.rhs ]
  br i1 %8, label %while.body, label %while.end

while.body:                                       ; preds = %land.end
  %9 = load ptr, ptr %m1.addr, align 8
  %10 = load i32, ptr %idx1, align 4
  %call5 = call noundef nonnull align 4 dereferenceable(8) ptr @_ZNK10polynomial8monomial9get_powerEj(ptr noundef nonnull align 4 dereferenceable(20) %9, i32 noundef %10)
  store ptr %call5, ptr %pw1, align 8
  %11 = load ptr, ptr %m2.addr, align 8
  %12 = load i32, ptr %idx2, align 4
  %call6 = call noundef nonnull align 4 dereferenceable(8) ptr @_ZNK10polynomial8monomial9get_powerEj(ptr noundef nonnull align 4 dereferenceable(20) %11, i32 noundef %12)
  store ptr %call6, ptr %pw2, align 8
  %13 = load ptr, ptr %pw1, align 8
  %call7 = call noundef i32 @_ZNK10polynomial5power7get_varEv(ptr noundef nonnull align 4 dereferenceable(8) %13)
  %14 = load ptr, ptr %pw2, align 8
  %call8 = call noundef i32 @_ZNK10polynomial5power7get_varEv(ptr noundef nonnull align 4 dereferenceable(8) %14)
  %cmp9 = icmp eq i32 %call7, %call8
  br i1 %cmp9, label %if.then10, label %if.end20

if.then10:                                        ; preds = %while.body
  %15 = load ptr, ptr %pw1, align 8
  %call11 = call noundef i32 @_ZNK10polynomial5power6degreeEv(ptr noundef nonnull align 4 dereferenceable(8) %15)
  %16 = load ptr, ptr %pw2, align 8
  %call12 = call noundef i32 @_ZNK10polynomial5power6degreeEv(ptr noundef nonnull align 4 dereferenceable(8) %16)
  %cmp13 = icmp eq i32 %call11, %call12
  br i1 %cmp13, label %if.then14, label %if.end16

if.then14:                                        ; preds = %if.then10
  %17 = load i32, ptr %idx1, align 4
  %dec = add nsw i32 %17, -1
  store i32 %dec, ptr %idx1, align 4
  %18 = load i32, ptr %idx2, align 4
  %dec15 = add nsw i32 %18, -1
  store i32 %dec15, ptr %idx2, align 4
  br label %while.cond, !llvm.loop !8

if.end16:                                         ; preds = %if.then10
  %19 = load ptr, ptr %pw1, align 8
  %call17 = call noundef i32 @_ZNK10polynomial5power6degreeEv(ptr noundef nonnull align 4 dereferenceable(8) %19)
  %20 = load ptr, ptr %pw2, align 8
  %call18 = call noundef i32 @_ZNK10polynomial5power6degreeEv(ptr noundef nonnull align 4 dereferenceable(8) %20)
  %cmp19 = icmp ult i32 %call17, %call18
  %cond = select i1 %cmp19, i32 -1, i32 1
  store i32 %cond, ptr %retval, align 4
  br label %return

if.end20:                                         ; preds = %while.body
  %21 = load ptr, ptr %pw1, align 8
  %call21 = call noundef i32 @_ZNK10polynomial5power7get_varEv(ptr noundef nonnull align 4 dereferenceable(8) %21)
  %22 = load ptr, ptr %pw2, align 8
  %call22 = call noundef i32 @_ZNK10polynomial5power7get_varEv(ptr noundef nonnull align 4 dereferenceable(8) %22)
  %cmp23 = icmp ugt i32 %call21, %call22
  %cond24 = select i1 %cmp23, i32 1, i32 -1
  store i32 %cond24, ptr %retval, align 4
  br label %return

while.end:                                        ; preds = %land.end
  %23 = load i32, ptr %idx1, align 4
  %cmp25 = icmp slt i32 %23, 0
  %cond26 = select i1 %cmp25, i32 -1, i32 1
  store i32 %cond26, ptr %retval, align 4
  br label %return

return:                                           ; preds = %while.end, %if.end20, %if.end16, %if.then
  %24 = load i32, ptr %retval, align 4
  ret i32 %24
}

; Function Attrs: mustprogress nounwind uwtable
define linkonce_odr hidden noundef i32 @_ZNK10polynomial8monomial12total_degreeEv(ptr noundef nonnull align 4 dereferenceable(20) %this) #4 comdat align 2 {
entry:
  %this.addr = alloca ptr, align 8
  store ptr %this, ptr %this.addr, align 8
  %this1 = load ptr, ptr %this.addr, align 8
  %m_total_degree = getelementptr inbounds %"class.polynomial::monomial", ptr %this1, i32 0, i32 2
  %0 = load i32, ptr %m_total_degree, align 4
  ret i32 %0
}

; Function Attrs: mustprogress uwtable
define hidden noundef i32 @_ZN10polynomial18graded_lex_compareEPKNS_8monomialES2_(ptr noundef %m1, ptr noundef %m2) #5 {
entry:
  %retval = alloca i32, align 4
  %m1.addr = alloca ptr, align 8
  %m2.addr = alloca ptr, align 8
  %t1 = alloca i32, align 4
  %t2 = alloca i32, align 4
  store ptr %m1, ptr %m1.addr, align 8
  store ptr %m2, ptr %m2.addr, align 8
  %0 = load ptr, ptr %m1.addr, align 8
  %call = call noundef i32 @_ZNK10polynomial8monomial12total_degreeEv(ptr noundef nonnull align 4 dereferenceable(20) %0)
  store i32 %call, ptr %t1, align 4
  %1 = load ptr, ptr %m2.addr, align 8
  %call1 = call noundef i32 @_ZNK10polynomial8monomial12total_degreeEv(ptr noundef nonnull align 4 dereferenceable(20) %1)
  store i32 %call1, ptr %t2, align 4
  %2 = load i32, ptr %t1, align 4
  %3 = load i32, ptr %t2, align 4
  %cmp = icmp eq i32 %2, %3
  br i1 %cmp, label %if.then, label %if.else

if.then:                                          ; preds = %entry
  %4 = load ptr, ptr %m1.addr, align 8
  %5 = load ptr, ptr %m2.addr, align 8
  %call2 = call noundef i32 @_ZN10polynomial11lex_compareEPKNS_8monomialES2_(ptr noundef %4, ptr noundef %5)
  store i32 %call2, ptr %retval, align 4
  br label %return

if.else:                                          ; preds = %entry
  %6 = load i32, ptr %t1, align 4
  %7 = load i32, ptr %t2, align 4
  %cmp3 = icmp ult i32 %6, %7
  %cond = select i1 %cmp3, i32 -1, i32 1
  store i32 %cond, ptr %retval, align 4
  br label %return

return:                                           ; preds = %if.else, %if.then
  %8 = load i32, ptr %retval, align 4
  ret i32 %8
}