; Function Attrs: mustprogress nofree norecurse nosync nounwind willreturn memory(argmem: read) uwtable
define hidden noundef i32 @_ZN10polynomial18graded_lex_compareEPKNS_8monomialES2_(ptr noundef readonly %m1, ptr noundef readonly %m2) local_unnamed_addr #5 {
entry:
  %m_total_degree.i = getelementptr inbounds i8, ptr %m1, i64 8
  %0 = load i32, ptr %m_total_degree.i, align 4
  %m_total_degree.i5 = getelementptr inbounds i8, ptr %m2, i64 8
  %1 = load i32, ptr %m_total_degree.i5, align 4
  %cmp = icmp eq i32 %0, %1
  br i1 %cmp, label %if.then, label %if.else

if.then:                                          ; preds = %entry
  %cmp.i = icmp eq ptr %m1, %m2
  br i1 %cmp.i, label %return, label %if.end.i

if.end.i:                                         ; preds = %if.then
  %m_size.i.i = getelementptr inbounds i8, ptr %m1, i64 12
  %2 = load i32, ptr %m_size.i.i, align 4
  %m_size.i16.i = getelementptr inbounds i8, ptr %m2, i64 12
  %3 = load i32, ptr %m_size.i16.i, align 4
  %m_powers.i.i = getelementptr inbounds i8, ptr %m1, i64 20
  %m_powers.i17.i = getelementptr inbounds i8, ptr %m2, i64 20
  %4 = zext i32 %3 to i64
  %5 = zext i32 %2 to i64
  br label %while.cond.i

while.cond.i:                                     ; preds = %if.then10.i, %if.end.i
  %indvars.iv38.i = phi i64 [ %6, %if.then10.i ], [ %5, %if.end.i ]
  %indvars.iv.i = phi i64 [ %7, %if.then10.i ], [ %4, %if.end.i ]
  %6 = add nsw i64 %indvars.iv38.i, -1
  %7 = add nsw i64 %indvars.iv.i, -1
  %8 = trunc i64 %indvars.iv38.i to i32
  %cmp3.i = icmp sgt i32 %8, 0
  %9 = trunc i64 %indvars.iv.i to i32
  %cmp4.i = icmp sgt i32 %9, 0
  %10 = select i1 %cmp3.i, i1 %cmp4.i, i1 false
  br i1 %10, label %while.body.i, label %while.end.i

while.body.i:                                     ; preds = %while.cond.i
  %arrayidx.i.i = getelementptr inbounds [0 x %"class.polynomial::power"], ptr %m_powers.i.i, i64 0, i64 %6
  %arrayidx.i19.i = getelementptr inbounds [0 x %"class.polynomial::power"], ptr %m_powers.i17.i, i64 0, i64 %7
  %11 = load i32, ptr %arrayidx.i.i, align 4
  %12 = load i32, ptr %arrayidx.i19.i, align 4
  %cmp9.i = icmp eq i32 %11, %12
  br i1 %cmp9.i, label %if.then10.i, label %if.end20.i

if.then10.i:                                      ; preds = %while.body.i
  %second.i.i = getelementptr inbounds i8, ptr %arrayidx.i.i, i64 4
  %13 = load i32, ptr %second.i.i, align 4
  %second.i20.i = getelementptr inbounds i8, ptr %arrayidx.i19.i, i64 4
  %14 = load i32, ptr %second.i20.i, align 4
  %cmp13.i = icmp eq i32 %13, %14
  br i1 %cmp13.i, label %while.cond.i, label %if.end16.i, !llvm.loop !8

if.end16.i:                                       ; preds = %if.then10.i
  %cmp19.i = icmp ult i32 %13, %14
  %cond.i = select i1 %cmp19.i, i32 -1, i32 1
  br label %return

if.end20.i:                                       ; preds = %while.body.i
  %cmp23.i = icmp ugt i32 %11, %12
  %cond24.i = select i1 %cmp23.i, i32 1, i32 -1
  br label %return

while.end.i:                                      ; preds = %while.cond.i
  %cmp25.i = icmp slt i32 %8, 1
  %cond26.i = select i1 %cmp25.i, i32 -1, i32 1
  br label %return

if.else:                                          ; preds = %entry
  %cmp3 = icmp ult i32 %0, %1
  %cond = select i1 %cmp3, i32 -1, i32 1
  br label %return

return:                                           ; preds = %while.end.i, %if.end20.i, %if.end16.i, %if.then, %if.else
  %retval.0 = phi i32 [ %cond, %if.else ], [ %cond.i, %if.end16.i ], [ %cond24.i, %if.end20.i ], [ %cond26.i, %while.end.i ], [ 0, %if.then ]
  ret i32 %retval.0
}